; Function Attrs: nounwind uwtable
define dso_local void @AggRegisterCallback(ptr noundef readonly captures(none) %0, ptr noundef %1, i64 noundef %2) local_unnamed_addr #2 {
  %4 = getelementptr inbounds nuw i8, ptr %0, i64 8
  %5 = load ptr, ptr %4, align 8
  %.not = icmp eq ptr %5, null
  br i1 %.not, label %12, label %6

6:                                                ; preds = %3
  %7 = load i32, ptr %5, align 4
  %8 = icmp eq i32 %7, 428
  br i1 %8, label %9, label %12

9:                                                ; preds = %6
  %10 = getelementptr inbounds nuw i8, ptr %5, i64 304
  %11 = load ptr, ptr %10, align 8
  tail call void @RegisterExprContextCallback(ptr noundef %11, ptr noundef %1, i64 noundef %2) #12
  ret void

12:                                               ; preds = %6, %3
  %13 = tail call zeroext i1 @errstart_cold(i32 noundef 21, ptr noundef null) #13
  tail call void @llvm.assume(i1 %13)
  %14 = tail call i32 (ptr, ...) @errmsg_internal(ptr noundef nonnull @.str.10) #12
  tail call void @errfinish(ptr noundef nonnull @.str.2, i32 noundef 4702, ptr noundef nonnull @__func__.AggRegisterCallback) #12
  unreachable
}